target datalayout = "e-m:e-p270:32:32-p271:32:32-p272:64:64-i64:64-i128:128-f80:128-n8:16:32:64-S128"
target triple = "x86_64-pc-linux-gnu"

%struct._object = type { %union.anon, ptr }
%union.anon = type { i64 }
%struct.anon.4 = type { i32, i32 }

; Function Attrs: alwaysinline nounwind uwtable
define internal i32 @_Py_IsImmortal(ptr noundef %0) #4 {
  %2 = alloca ptr, align 8
  store ptr %0, ptr %2, align 8, !tbaa !21
  %3 = load ptr, ptr %2, align 8, !tbaa !21
  %4 = getelementptr inbounds nuw %struct._object, ptr %3, i32 0, i32 0
  %5 = getelementptr inbounds nuw %struct.anon.4, ptr %4, i32 0, i32 0
  %6 = load i32, ptr %5, align 8, !tbaa !37
  %7 = icmp slt i32 %6, 0
  %8 = zext i1 %7 to i32
  ret i32 %8
}

; Function Attrs: inlinehint nounwind uwtable
define internal void @Py_XDECREF(ptr noundef %0) #5 {
  %2 = alloca ptr, align 8
  store ptr %0, ptr %2, align 8, !tbaa !21
  %3 = load ptr, ptr %2, align 8, !tbaa !21
  %4 = icmp ne ptr %3, null
  br i1 %4, label %5, label %7

5:                                                ; preds = %1
  %6 = load ptr, ptr %2, align 8, !tbaa !21
  call void @Py_DECREF(ptr noundef %6)
  br label %7

7:                                                ; preds = %5, %1
  ret void
}

; Function Attrs: alwaysinline nounwind uwtable
define internal void @Py_DECREF(ptr noundef %0) #4 {
  %2 = alloca ptr, align 8
  store ptr %0, ptr %2, align 8, !tbaa !21
  %3 = load ptr, ptr %2, align 8, !tbaa !21
  %4 = call i32 @_Py_IsImmortal(ptr noundef %3)
  %5 = icmp ne i32 %4, 0
  br i1 %5, label %6, label %7

6:                                                ; preds = %1
  br label %16

7:                                                ; preds = %1
  %8 = load ptr, ptr %2, align 8, !tbaa !21
  %9 = getelementptr inbounds nuw %struct._object, ptr %8, i32 0, i32 0
  %10 = getelementptr inbounds nuw %struct.anon.4, ptr %9, i32 0, i32 0
  %11 = load i32, ptr %10, align 8, !tbaa !37
  %12 = add i32 %11, -1
  store i32 %12, ptr %10, align 8, !tbaa !37
  %13 = icmp eq i32 %12, 0
  br i1 %13, label %14, label %16

14:                                               ; preds = %7
  %15 = load ptr, ptr %2, align 8, !tbaa !21
  call void @_Py_Dealloc(ptr noundef %15)
  br label %16

16:                                               ; preds = %6, %14, %7
  ret void
}

; Function Attrs: nounwind uwtable
define dso_local i32 @PyErr_WarnExplicit(ptr noundef %0, ptr noundef %1, ptr noundef %2, i32 noundef %3, ptr noundef %4, ptr noundef %5) #0 {
  %7 = alloca i32, align 4
  %8 = alloca ptr, align 8
  %9 = alloca ptr, align 8
  %10 = alloca ptr, align 8
  %11 = alloca i32, align 4
  %12 = alloca ptr, align 8
  %13 = alloca ptr, align 8
  %14 = alloca ptr, align 8
  %15 = alloca i32, align 4
  %16 = alloca ptr, align 8
  %17 = alloca ptr, align 8
  %18 = alloca i32, align 4
  store ptr %0, ptr %8, align 8, !tbaa !21
  store ptr %1, ptr %9, align 8, !tbaa !31
  store ptr %2, ptr %10, align 8, !tbaa !31
  store i32 %3, ptr %11, align 4, !tbaa !33
  store ptr %4, ptr %12, align 8, !tbaa !31
  store ptr %5, ptr %13, align 8, !tbaa !21
  call void @llvm.lifetime.start.p0(i64 8, ptr %14) #8
  %19 = load ptr, ptr %9, align 8, !tbaa !31
  %20 = call ptr @PyUnicode_FromString(ptr noundef %19)
  store ptr %20, ptr %14, align 8, !tbaa !21
  %21 = load ptr, ptr %14, align 8, !tbaa !21
  %22 = icmp eq ptr %21, null
  br i1 %22, label %23, label %24

23:                                               ; preds = %6
  store i32 -1, ptr %7, align 4
  store i32 1, ptr %15, align 4
  br label %57

24:                                               ; preds = %6
  call void @llvm.lifetime.start.p0(i64 8, ptr %16) #8
  %25 = load ptr, ptr %10, align 8, !tbaa !31
  %26 = call ptr @PyUnicode_DecodeFSDefault(ptr noundef %25)
  store ptr %26, ptr %16, align 8, !tbaa !21
  %27 = load ptr, ptr %16, align 8, !tbaa !21
  %28 = icmp eq ptr %27, null
  br i1 %28, label %29, label %31

29:                                               ; preds = %24
  %30 = load ptr, ptr %14, align 8, !tbaa !21
  call void @Py_DECREF(ptr noundef %30)
  store i32 -1, ptr %7, align 4
  store i32 1, ptr %15, align 4
  br label %56

31:                                               ; preds = %24
  call void @llvm.lifetime.start.p0(i64 8, ptr %17) #8
  store ptr null, ptr %17, align 8, !tbaa !21
  %32 = load ptr, ptr %12, align 8, !tbaa !31
  %33 = icmp ne ptr %32, null
  br i1 %33, label %34, label %43

34:                                               ; preds = %31
  %35 = load ptr, ptr %12, align 8, !tbaa !31
  %36 = call ptr @PyUnicode_FromString(ptr noundef %35)
  store ptr %36, ptr %17, align 8, !tbaa !21
  %37 = load ptr, ptr %17, align 8, !tbaa !21
  %38 = icmp eq ptr %37, null
  br i1 %38, label %39, label %42

39:                                               ; preds = %34
  %40 = load ptr, ptr %16, align 8, !tbaa !21
  call void @Py_DECREF(ptr noundef %40)
  %41 = load ptr, ptr %14, align 8, !tbaa !21
  call void @Py_DECREF(ptr noundef %41)
  store i32 -1, ptr %7, align 4
  store i32 1, ptr %15, align 4
  br label %55

42:                                               ; preds = %34
  br label %43

43:                                               ; preds = %42, %31
  call void @llvm.lifetime.start.p0(i64 4, ptr %18) #8
  %44 = load ptr, ptr %8, align 8, !tbaa !21
  %45 = load ptr, ptr %14, align 8, !tbaa !21
  %46 = load ptr, ptr %16, align 8, !tbaa !21
  %47 = load i32, ptr %11, align 4, !tbaa !33
  %48 = load ptr, ptr %17, align 8, !tbaa !21
  %49 = load ptr, ptr %13, align 8, !tbaa !21
  %50 = call i32 @PyErr_WarnExplicitObject(ptr noundef %44, ptr noundef %45, ptr noundef %46, i32 noundef %47, ptr noundef %48, ptr noundef %49)
  store i32 %50, ptr %18, align 4, !tbaa !33
  %51 = load ptr, ptr %17, align 8, !tbaa !21
  call void @Py_XDECREF(ptr noundef %51)
  %52 = load ptr, ptr %16, align 8, !tbaa !21
  call void @Py_DECREF(ptr noundef %52)
  %53 = load ptr, ptr %14, align 8, !tbaa !21
  call void @Py_DECREF(ptr noundef %53)
  %54 = load i32, ptr %18, align 4, !tbaa !33
  store i32 %54, ptr %7, align 4
  store i32 1, ptr %15, align 4
  call void @llvm.lifetime.end.p0(i64 4, ptr %18) #8
  br label %55

55:                                               ; preds = %43, %39
  call void @llvm.lifetime.end.p0(i64 8, ptr %17) #8
  br label %56

56:                                               ; preds = %55, %29
  call void @llvm.lifetime.end.p0(i64 8, ptr %16) #8
  br label %57

57:                                               ; preds = %56, %23
  call void @llvm.lifetime.end.p0(i64 8, ptr %14) #8
  %58 = load i32, ptr %7, align 4
  ret i32 %58
}