; Function Attrs: nounwind uwtable
define dso_local range(i32 -1, 1) i32 @PyErr_WarnExplicit(ptr noundef %0, ptr noundef %1, ptr noundef %2, i32 noundef %3, ptr noundef %4, ptr noundef %5) local_unnamed_addr #0 {
  %7 = tail call ptr @PyUnicode_FromString(ptr noundef %1) #7
  %8 = icmp eq ptr %7, null
  br i1 %8, label %Py_DECREF.exit32, label %9

9:                                                ; preds = %6
  %10 = tail call ptr @PyUnicode_DecodeFSDefault(ptr noundef %2) #7
  %11 = icmp eq ptr %10, null
  br i1 %11, label %12, label %17

12:                                               ; preds = %9
  %13 = load i32, ptr %7, align 8, !tbaa !15
  %.not.i31 = icmp sgt i32 %13, -1
  br i1 %.not.i31, label %14, label %Py_DECREF.exit32

14:                                               ; preds = %12
  %15 = add nsw i32 %13, -1
  store i32 %15, ptr %7, align 8, !tbaa !15
  %16 = icmp eq i32 %15, 0
  br i1 %16, label %Py_DECREF.exit32.sink.split, label %Py_DECREF.exit32

17:                                               ; preds = %9
  %.not = icmp eq ptr %4, null
  br i1 %.not, label %.thread, label %19

.thread:                                          ; preds = %17
  %18 = tail call i32 @PyErr_WarnExplicitObject(ptr noundef %0, ptr noundef nonnull %7, ptr noundef nonnull %10, i32 noundef %3, ptr noundef null, ptr noundef %5)
  br label %Py_XDECREF.exit

19:                                               ; preds = %17
  %20 = tail call ptr @PyUnicode_FromString(ptr noundef nonnull %4) #7
  %21 = icmp eq ptr %20, null
  br i1 %21, label %22, label %32

22:                                               ; preds = %19
  %23 = load i32, ptr %10, align 8, !tbaa !15
  %.not.i29 = icmp sgt i32 %23, -1
  br i1 %.not.i29, label %24, label %Py_DECREF.exit30

24:                                               ; preds = %22
  %25 = add nsw i32 %23, -1
  store i32 %25, ptr %10, align 8, !tbaa !15
  %26 = icmp eq i32 %25, 0
  br i1 %26, label %27, label %Py_DECREF.exit30

27:                                               ; preds = %24
  tail call void @_Py_Dealloc(ptr noundef nonnull %10) #7
  br label %Py_DECREF.exit30

Py_DECREF.exit30:                                 ; preds = %22, %24, %27
  %28 = load i32, ptr %7, align 8, !tbaa !15
  %.not.i27 = icmp sgt i32 %28, -1
  br i1 %.not.i27, label %29, label %Py_DECREF.exit32

29:                                               ; preds = %Py_DECREF.exit30
  %30 = add nsw i32 %28, -1
  store i32 %30, ptr %7, align 8, !tbaa !15
  %31 = icmp eq i32 %30, 0
  br i1 %31, label %Py_DECREF.exit32.sink.split, label %Py_DECREF.exit32

32:                                               ; preds = %19
  %33 = tail call i32 @PyErr_WarnExplicitObject(ptr noundef %0, ptr noundef nonnull %7, ptr noundef nonnull %10, i32 noundef %3, ptr noundef nonnull %20, ptr noundef %5)
  %34 = load i32, ptr %20, align 8, !tbaa !15
  %.not.i.i = icmp sgt i32 %34, -1
  br i1 %.not.i.i, label %35, label %Py_XDECREF.exit

35:                                               ; preds = %32
  %36 = add nsw i32 %34, -1
  store i32 %36, ptr %20, align 8, !tbaa !15
  %37 = icmp eq i32 %36, 0
  br i1 %37, label %38, label %Py_XDECREF.exit

38:                                               ; preds = %35
  tail call void @_Py_Dealloc(ptr noundef nonnull %20) #7
  br label %Py_XDECREF.exit

Py_XDECREF.exit:                                  ; preds = %.thread, %32, %35, %38
  %39 = phi i32 [ %18, %.thread ], [ %33, %32 ], [ %33, %35 ], [ %33, %38 ]
  %40 = load i32, ptr %10, align 8, !tbaa !15
  %.not.i25 = icmp sgt i32 %40, -1
  br i1 %.not.i25, label %41, label %Py_DECREF.exit26

41:                                               ; preds = %Py_XDECREF.exit
  %42 = add nsw i32 %40, -1
  store i32 %42, ptr %10, align 8, !tbaa !15
  %43 = icmp eq i32 %42, 0
  br i1 %43, label %44, label %Py_DECREF.exit26

44:                                               ; preds = %41
  tail call void @_Py_Dealloc(ptr noundef nonnull %10) #7
  br label %Py_DECREF.exit26

Py_DECREF.exit26:                                 ; preds = %Py_XDECREF.exit, %41, %44
  %45 = load i32, ptr %7, align 8, !tbaa !15
  %.not.i = icmp sgt i32 %45, -1
  br i1 %.not.i, label %46, label %Py_DECREF.exit32

46:                                               ; preds = %Py_DECREF.exit26
  %47 = add nsw i32 %45, -1
  store i32 %47, ptr %7, align 8, !tbaa !15
  %48 = icmp eq i32 %47, 0
  br i1 %48, label %Py_DECREF.exit32.sink.split, label %Py_DECREF.exit32

Py_DECREF.exit32.sink.split:                      ; preds = %46, %29, %14
  %.0.ph = phi i32 [ -1, %14 ], [ -1, %29 ], [ %39, %46 ]
  tail call void @_Py_Dealloc(ptr noundef nonnull %7) #7
  br label %Py_DECREF.exit32

Py_DECREF.exit32:                                 ; preds = %Py_DECREF.exit32.sink.split, %46, %Py_DECREF.exit26, %29, %Py_DECREF.exit30, %14, %12, %6
  %.0 = phi i32 [ -1, %6 ], [ -1, %12 ], [ -1, %14 ], [ -1, %Py_DECREF.exit30 ], [ -1, %29 ], [ %39, %Py_DECREF.exit26 ], [ %39, %46 ], [ %.0.ph, %Py_DECREF.exit32.sink.split ]
  ret i32 %.0
}